target datalayout = "e-m:e-p270:32:32-p271:32:32-p272:64:64-i64:64-i128:128-f80:128-n8:16:32:64-S128"
target triple = "x86_64-unknown-linux-gnu"

%struct.QemuMutex = type { %union.pthread_mutex_t, i8 }
%union.pthread_mutex_t = type { %struct.__pthread_mutex_s }
%struct.__pthread_mutex_s = type { i32, i32, i32, i32, i32, i16, i16, %struct.__pthread_internal_list }
%struct.__pthread_internal_list = type { ptr, ptr }
%struct.MigrationIncomingState = type { ptr, [2 x ptr], ptr, ptr, %struct.QemuSemaphore, %struct.QemuEvent, %struct.AnnounceTimer, i64, i8, %struct.QemuThread, i8, i8, %struct.QemuThread, i32, i32, ptr, %struct.QemuMutex, ptr, i32, ptr, %struct.QemuSemaphore, %struct.QemuThread, i32, %struct.QemuMutex, ptr, ptr, ptr, ptr, i32, ptr, ptr, %struct.QemuSemaphore, ptr, %struct.QemuSemaphore, %struct.QemuSemaphore, %struct.QemuSemaphore, ptr, ptr, i32, %struct.QemuMutex, %struct.QemuCond, i32 }
%struct.QemuEvent = type { i32, i8 }
%struct.AnnounceTimer = type { ptr, %struct.AnnounceParameters, i32, i32 }
%struct.AnnounceParameters = type { i64, i64, i64, i64, i8, ptr, ptr }
%struct.QemuThread = type { i64 }
%struct.QemuSemaphore = type { %struct.QemuMutex, %struct.QemuCond, i32 }
%struct.QemuCond = type { %union.pthread_cond_t, i8 }
%union.pthread_cond_t = type { %struct.__pthread_cond_s }
%struct.__pthread_cond_s = type { %union.__atomic_wide_counter, %union.__atomic_wide_counter, [2 x i32], [2 x i32], i32, i32, [2 x i32] }
%union.__atomic_wide_counter = type { i64 }
%struct.PostCopyFD = type { i32, ptr, ptr, ptr, ptr }
%struct._GArray = type { ptr, i32 }

; Function Attrs: nounwind sspstrong uwtable
define dso_local i32 @postcopy_notify_shared_wake(ptr noundef %rb, i64 noundef %offset) #0 {
entry:
  %retval = alloca i32, align 4
  %rb.addr = alloca ptr, align 8
  %offset.addr = alloca i64, align 8
  %i = alloca i32, align 4
  %mis = alloca ptr, align 8
  %pcrfds = alloca ptr, align 8
  %cur = alloca ptr, align 8
  %ret = alloca i32, align 4
  store ptr %rb, ptr %rb.addr, align 8
  store i64 %offset, ptr %offset.addr, align 8
  %call = call ptr @migration_incoming_get_current()
  store ptr %call, ptr %mis, align 8
  %0 = load ptr, ptr %mis, align 8
  %postcopy_remote_fds = getelementptr inbounds %struct.MigrationIncomingState, ptr %0, i32 0, i32 26
  %1 = load ptr, ptr %postcopy_remote_fds, align 8
  store ptr %1, ptr %pcrfds, align 8
  store i32 0, ptr %i, align 4
  br label %for.cond

for.cond:                                         ; preds = %for.inc, %entry
  %2 = load i32, ptr %i, align 4
  %3 = load ptr, ptr %pcrfds, align 8
  %len = getelementptr inbounds %struct._GArray, ptr %3, i32 0, i32 1
  %4 = load i32, ptr %len, align 8
  %cmp = icmp ult i32 %2, %4
  br i1 %cmp, label %for.body, label %for.end

for.body:                                         ; preds = %for.cond
  %5 = load ptr, ptr %pcrfds, align 8
  %data = getelementptr inbounds %struct._GArray, ptr %5, i32 0, i32 0
  %6 = load ptr, ptr %data, align 8
  %7 = load i32, ptr %i, align 4
  %idxprom = sext i32 %7 to i64
  %arrayidx = getelementptr %struct.PostCopyFD, ptr %6, i64 %idxprom
  store ptr %arrayidx, ptr %cur, align 8
  %8 = load ptr, ptr %cur, align 8
  %waker = getelementptr inbounds %struct.PostCopyFD, ptr %8, i32 0, i32 3
  %9 = load ptr, ptr %waker, align 8
  %10 = load ptr, ptr %cur, align 8
  %11 = load ptr, ptr %rb.addr, align 8
  %12 = load i64, ptr %offset.addr, align 8
  %call1 = call i32 %9(ptr noundef %10, ptr noundef %11, i64 noundef %12)
  store i32 %call1, ptr %ret, align 4
  %13 = load i32, ptr %ret, align 4
  %tobool = icmp ne i32 %13, 0
  br i1 %tobool, label %if.then, label %if.end

if.then:                                          ; preds = %for.body
  %14 = load i32, ptr %ret, align 4
  store i32 %14, ptr %retval, align 4
  br label %return

if.end:                                           ; preds = %for.body
  br label %for.inc

for.inc:                                          ; preds = %if.end
  %15 = load i32, ptr %i, align 4
  %inc = add i32 %15, 1
  store i32 %inc, ptr %i, align 4
  br label %for.cond, !llvm.loop !17

for.end:                                          ; preds = %for.cond
  store i32 0, ptr %retval, align 4
  br label %return

return:                                           ; preds = %for.end, %if.then
  %16 = load i32, ptr %retval, align 4
  ret i32 %16
}