; Function Attrs: nounwind sspstrong uwtable
define dso_local i32 @postcopy_notify_shared_wake(ptr noundef %rb, i64 noundef %offset) local_unnamed_addr #0 {
entry:
  %call = tail call ptr @migration_incoming_get_current() #16
  %postcopy_remote_fds = getelementptr inbounds nuw i8, ptr %call, i64 552
  %0 = load ptr, ptr %postcopy_remote_fds, align 8
  %len = getelementptr inbounds nuw i8, ptr %0, i64 8
  %1 = load i32, ptr %len, align 8
  %cmp6.not = icmp eq i32 %1, 0
  br i1 %cmp6.not, label %return, label %for.body

for.cond:                                         ; preds = %for.body
  %inc = add nuw i32 %i.07, 1
  %2 = load i32, ptr %len, align 8
  %cmp = icmp ult i32 %inc, %2
  br i1 %cmp, label %for.body, label %return, !llvm.loop !19

for.body:                                         ; preds = %entry, %for.cond
  %i.07 = phi i32 [ %inc, %for.cond ], [ 0, %entry ]
  %3 = load ptr, ptr %0, align 8
  %idxprom = sext i32 %i.07 to i64
  %arrayidx = getelementptr %struct.PostCopyFD, ptr %3, i64 %idxprom
  %waker = getelementptr inbounds nuw i8, ptr %arrayidx, i64 24
  %4 = load ptr, ptr %waker, align 8
  %call1 = tail call i32 %4(ptr noundef %arrayidx, ptr noundef %rb, i64 noundef %offset) #16
  %tobool.not = icmp eq i32 %call1, 0
  br i1 %tobool.not, label %for.cond, label %return

return:                                           ; preds = %for.body, %for.cond, %entry
  %retval.0 = phi i32 [ 0, %entry ], [ 0, %for.cond ], [ %call1, %for.body ]
  ret i32 %retval.0
}